target datalayout = "e-m:e-p270:32:32-p271:32:32-p272:64:64-i64:64-i128:128-f80:128-n8:16:32:64-S128"
target triple = "x86_64-pc-linux-gnu"

%struct.Ivy_Obj_t_ = type { i32, i32, i32, i32, ptr, ptr, ptr, ptr, ptr, ptr, ptr, ptr }

; Function Attrs: nounwind uwtable
define i32 @Ivy_CompareNodesByLevel(ptr noundef %0, ptr noundef %1) #0 {
  %3 = alloca i32, align 4
  %4 = alloca ptr, align 8
  %5 = alloca ptr, align 8
  %6 = alloca ptr, align 8
  %7 = alloca ptr, align 8
  %8 = alloca i32, align 4
  store ptr %0, ptr %4, align 8, !tbaa !65
  store ptr %1, ptr %5, align 8, !tbaa !65
  call void @llvm.lifetime.start.p0(i64 8, ptr %6) #10
  %9 = load ptr, ptr %4, align 8, !tbaa !65
  %10 = load ptr, ptr %9, align 8, !tbaa !8
  store ptr %10, ptr %6, align 8, !tbaa !8
  call void @llvm.lifetime.start.p0(i64 8, ptr %7) #10
  %11 = load ptr, ptr %5, align 8, !tbaa !65
  %12 = load ptr, ptr %11, align 8, !tbaa !8
  store ptr %12, ptr %7, align 8, !tbaa !8
  %13 = load ptr, ptr %6, align 8, !tbaa !8
  %14 = getelementptr inbounds nuw %struct.Ivy_Obj_t_, ptr %13, i32 0, i32 2
  %15 = load i32, ptr %14, align 8
  %16 = lshr i32 %15, 11
  %17 = load ptr, ptr %7, align 8, !tbaa !8
  %18 = getelementptr inbounds nuw %struct.Ivy_Obj_t_, ptr %17, i32 0, i32 2
  %19 = load i32, ptr %18, align 8
  %20 = lshr i32 %19, 11
  %21 = icmp slt i32 %16, %20
  br i1 %21, label %22, label %23

22:                                               ; preds = %2
  store i32 -1, ptr %3, align 4
  store i32 1, ptr %8, align 4
  br label %35

23:                                               ; preds = %2
  %24 = load ptr, ptr %6, align 8, !tbaa !8
  %25 = getelementptr inbounds nuw %struct.Ivy_Obj_t_, ptr %24, i32 0, i32 2
  %26 = load i32, ptr %25, align 8
  %27 = lshr i32 %26, 11
  %28 = load ptr, ptr %7, align 8, !tbaa !8
  %29 = getelementptr inbounds nuw %struct.Ivy_Obj_t_, ptr %28, i32 0, i32 2
  %30 = load i32, ptr %29, align 8
  %31 = lshr i32 %30, 11
  %32 = icmp sgt i32 %27, %31
  br i1 %32, label %33, label %34

33:                                               ; preds = %23
  store i32 1, ptr %3, align 4
  store i32 1, ptr %8, align 4
  br label %35

34:                                               ; preds = %23
  store i32 0, ptr %3, align 4
  store i32 1, ptr %8, align 4
  br label %35

35:                                               ; preds = %34, %33, %22
  call void @llvm.lifetime.end.p0(i64 8, ptr %7) #10
  call void @llvm.lifetime.end.p0(i64 8, ptr %6) #10
  %36 = load i32, ptr %3, align 4
  ret i32 %36
}