; Function Attrs: mustprogress nofree norecurse nosync nounwind willreturn memory(read, inaccessiblemem: none) uwtable
define range(i32 -1, 2) i32 @Ivy_CompareNodesByLevel(ptr noundef readonly captures(none) %0, ptr noundef readonly captures(none) %1) #3 {
  %3 = load ptr, ptr %0, align 8, !tbaa !55
  %4 = load ptr, ptr %1, align 8, !tbaa !55
  %5 = getelementptr inbounds nuw i8, ptr %3, i64 8
  %6 = load i32, ptr %5, align 8
  %7 = lshr i32 %6, 11
  %8 = getelementptr inbounds nuw i8, ptr %4, i64 8
  %9 = load i32, ptr %8, align 8
  %10 = lshr i32 %9, 11
  %.0 = tail call i32 @llvm.ucmp.i32.i32(i32 %7, i32 %10)
  ret i32 %.0
}